; ModuleID = '19/1976.c'
source_filename = "19/1976.c"
target datalayout = "e-m:e-p270:32:32-p271:32:32-p272:64:64-i64:64-f80:128-n8:16:32:64-S128"
target triple = "x86_64-pc-linux-gnu"

@s = common dso_local global [100 x i8] zeroinitializer, align 16
@a = common dso_local global [100 x i8] zeroinitializer, align 16
@b = common dso_local global [100 x i8] zeroinitializer, align 16
@len1 = common dso_local global i32 0, align 4
@len2 = common dso_local global i32 0, align 4
@len3 = common dso_local global i32 0, align 4
@i = common dso_local global i32 0, align 4
@.str = private unnamed_addr constant [3 x i8] c"%c\00", align 1

; Function Attrs: noinline nounwind uwtable
define dso_local i32 @main() #0 {
  %1 = alloca i32, align 4
  store i32 0, i32* %1, align 4
  %2 = call i32 (i8*, ...) bitcast (i32 (...)* @gets to i32 (i8*, ...)*)(i8* getelementptr inbounds ([100 x i8], [100 x i8]* @s, i64 0, i64 0))
  %3 = call i32 (i8*, ...) bitcast (i32 (...)* @gets to i32 (i8*, ...)*)(i8* getelementptr inbounds ([100 x i8], [100 x i8]* @a, i64 0, i64 0))
  %4 = call i32 (i8*, ...) bitcast (i32 (...)* @gets to i32 (i8*, ...)*)(i8* getelementptr inbounds ([100 x i8], [100 x i8]* @b, i64 0, i64 0))
  %5 = call i64 @strlen(i8* getelementptr inbounds ([100 x i8], [100 x i8]* @s, i64 0, i64 0)) #3
  %6 = trunc i64 %5 to i32
  store i32 %6, i32* @len1, align 4
  %7 = call i64 @strlen(i8* getelementptr inbounds ([100 x i8], [100 x i8]* @a, i64 0, i64 0)) #3
  %8 = trunc i64 %7 to i32
  store i32 %8, i32* @len2, align 4
  %9 = call i64 @strlen(i8* getelementptr inbounds ([100 x i8], [100 x i8]* @b, i64 0, i64 0)) #3
  %10 = trunc i64 %9 to i32
  store i32 %10, i32* @len3, align 4
  store i32 0, i32* @i, align 4
  br label %11

11:                                               ; preds = %32, %0
  %12 = load i32, i32* @i, align 4
  %13 = load i32, i32* @len1, align 4
  %14 = icmp slt i32 %12, %13
  br i1 %14, label %15, label %35

15:                                               ; preds = %11
  %16 = load i32, i32* @i, align 4
  %17 = call i32 @check(i32 %16)
  %18 = icmp ne i32 %17, 0
  br i1 %18, label %19, label %24

19:                                               ; preds = %15
  call void @output()
  %20 = load i32, i32* @len2, align 4
  %21 = sub nsw i32 %20, 1
  %22 = load i32, i32* @i, align 4
  %23 = add nsw i32 %22, %21
  store i32 %23, i32* @i, align 4
  br label %31

24:                                               ; preds = %15
  %25 = load i32, i32* @i, align 4
  %26 = sext i32 %25 to i64
  %27 = getelementptr inbounds [100 x i8], [100 x i8]* @s, i64 0, i64 %26
  %28 = load i8, i8* %27, align 1
  %29 = sext i8 %28 to i32
  %30 = call i32 (i8*, ...) @printf(i8* getelementptr inbounds ([3 x i8], [3 x i8]* @.str, i64 0, i64 0), i32 %29)
  br label %31

31:                                               ; preds = %24, %19
  br label %32

32:                                               ; preds = %31
  %33 = load i32, i32* @i, align 4
  %34 = add nsw i32 %33, 1
  store i32 %34, i32* @i, align 4
  br label %11

35:                                               ; preds = %11
  %36 = load i32, i32* %1, align 4
  ret i32 %36
}

declare dso_local i32 @gets(...) #1

; Function Attrs: nounwind readonly
declare dso_local i64 @strlen(i8*) #2

; Function Attrs: noinline nounwind uwtable
define dso_local i32 @check(i32 %0) #0 {
  %2 = alloca i32, align 4
  %3 = alloca i32, align 4
  %4 = alloca i32, align 4
  %5 = alloca i32, align 4
  store i32 %0, i32* %3, align 4
  store i32 0, i32* %4, align 4
  store i32 0, i32* %5, align 4
  %6 = load i32, i32* %3, align 4
  %7 = icmp sgt i32 %6, 0
  br i1 %7, label %8, label %17

8:                                                ; preds = %1
  %9 = load i32, i32* %3, align 4
  %10 = sub nsw i32 %9, 1
  %11 = sext i32 %10 to i64
  %12 = getelementptr inbounds [100 x i8], [100 x i8]* @s, i64 0, i64 %11
  %13 = load i8, i8* %12, align 1
  %14 = sext i8 %13 to i32
  %15 = icmp ne i32 %14, 32
  br i1 %15, label %16, label %17

16:                                               ; preds = %8
  store i32 0, i32* %2, align 4
  br label %49

17:                                               ; preds = %8, %1
  store i32 0, i32* %5, align 4
  br label %18

18:                                               ; preds = %40, %17
  %19 = load i32, i32* %5, align 4
  %20 = load i32, i32* @len2, align 4
  %21 = icmp slt i32 %19, %20
  br i1 %21, label %22, label %43

22:                                               ; preds = %18
  %23 = load i32, i32* %3, align 4
  %24 = load i32, i32* %5, align 4
  %25 = add nsw i32 %23, %24
  %26 = sext i32 %25 to i64
  %27 = getelementptr inbounds [100 x i8], [100 x i8]* @s, i64 0, i64 %26
  %28 = load i8, i8* %27, align 1
  %29 = sext i8 %28 to i32
  %30 = load i32, i32* %5, align 4
  %31 = sext i32 %30 to i64
  %32 = getelementptr inbounds [100 x i8], [100 x i8]* @a, i64 0, i64 %31
  %33 = load i8, i8* %32, align 1
  %34 = sext i8 %33 to i32
  %35 = icmp eq i32 %29, %34
  br i1 %35, label %36, label %39

36:                                               ; preds = %22
  %37 = load i32, i32* %4, align 4
  %38 = add nsw i32 %37, 1
  store i32 %38, i32* %4, align 4
  br label %39

39:                                               ; preds = %36, %22
  br label %40

40:                                               ; preds = %39
  %41 = load i32, i32* %5, align 4
  %42 = add nsw i32 %41, 1
  store i32 %42, i32* %5, align 4
  br label %18

43:                                               ; preds = %18
  %44 = load i32, i32* %4, align 4
  %45 = load i32, i32* @len2, align 4
  %46 = icmp eq i32 %44, %45
  br i1 %46, label %47, label %48

47:                                               ; preds = %43
  store i32 1, i32* %2, align 4
  br label %49

48:                                               ; preds = %43
  store i32 0, i32* %2, align 4
  br label %49

49:                                               ; preds = %48, %47, %16
  %50 = load i32, i32* %2, align 4
  ret i32 %50
}

; Function Attrs: noinline nounwind uwtable
define dso_local void @output() #0 {
  %1 = alloca i32, align 4
  store i32 0, i32* %1, align 4
  br label %2

2:                                                ; preds = %13, %0
  %3 = load i32, i32* %1, align 4
  %4 = load i32, i32* @len3, align 4
  %5 = icmp slt i32 %3, %4
  br i1 %5, label %6, label %16

6:                                                ; preds = %2
  %7 = load i32, i32* %1, align 4
  %8 = sext i32 %7 to i64
  %9 = getelementptr inbounds [100 x i8], [100 x i8]* @b, i64 0, i64 %8
  %10 = load i8, i8* %9, align 1
  %11 = sext i8 %10 to i32
  %12 = call i32 (i8*, ...) @printf(i8* getelementptr inbounds ([3 x i8], [3 x i8]* @.str, i64 0, i64 0), i32 %11)
  br label %13

13:                                               ; preds = %6
  %14 = load i32, i32* %1, align 4
  %15 = add nsw i32 %14, 1
  store i32 %15, i32* %1, align 4
  br label %2

16:                                               ; preds = %2
  ret void
}

declare dso_local i32 @printf(i8*, ...) #1


!llvm.module.flags = !{!0}
!llvm.ident = !{!1}

!0 = !{i32 1, !"wchar_size", i32 4}
!1 = !{!"clang version 10.0.0-4ubuntu1 "}
